(lp0
S'an insect'
p1
a(dp2
I00
(lp3
S'human'
p4
aNasI01
(lp5
S'annoying'
p6
a(dp7
I00
(lp8
S'a gnat'
p9
aNasI01
(lp10
S'stingy'
p11
a(dp12
I00
(lp13
S'a fly'
p14
aNasI01
(lp15
S'a wasp'
p16
aNasasasa.