(dp0
I1
(S'JAS'
p1
I2000
tp2
sI2
(S'JAS'
p3
I1260
tp4
sI3
(S'ACE'
p5
I1100
tp6
sI4
(g5
I1000
tp7
sI5
(g5
I900
tp8
sI6
(g5
I800
tp9
sI7
(g5
I700
tp10
sI8
(g5
I600
tp11
sI9
(S'JAS'
p12
I600
tp13
sI10
(S'JAS'
p14
I560
tp15
s.