(dp0
I1
(S'JAS'
p1
I4825
tp2
sI2
(S'AJS'
p3
I3625
tp4
sI3
(S'ABC'
p5
I2700
tp6
sI4
(S'JAS'
p7
I2500
tp8
sI5
(S'JAS'
p9
I2000
tp10
sI6
(S'AAA'
p11
I1100
tp12
sI7
(g11
I1000
tp13
sI8
(g11
I900
tp14
sI9
(g11
I800
tp15
sI10
(g11
I700
tp16
s.